target datalayout = "e-m:e-p270:32:32-p271:32:32-p272:64:64-i64:64-i128:128-f80:128-n8:16:32:64-S128"
target triple = "x86_64-pc-linux-gnu"

%struct.SurfaceDataRasInfo = type { %struct.SurfaceDataBounds, ptr, i32, i32, i32, i32, ptr, ptr, ptr, ptr, ptr, ptr, i32, %union.anon.0 }
%struct.SurfaceDataBounds = type { i32, i32, i32, i32 }
%union.anon.0 = type { ptr, [56 x i8] }

; Function Attrs: nounwind uwtable
define hidden void @ByteIndexedBmToByteIndexedScaleXparOver(ptr noundef %0, ptr noundef %1, i32 noundef %2, i32 noundef %3, i32 noundef %4, i32 noundef %5, i32 noundef %6, i32 noundef %7, i32 noundef %8, ptr noundef %9, ptr noundef %10, ptr noundef %11, ptr noundef %12) #0 {
  %14 = alloca ptr, align 8
  %15 = alloca ptr, align 8
  %16 = alloca i32, align 4
  %17 = alloca i32, align 4
  %18 = alloca i32, align 4
  %19 = alloca i32, align 4
  %20 = alloca i32, align 4
  %21 = alloca i32, align 4
  %22 = alloca i32, align 4
  %23 = alloca ptr, align 8
  %24 = alloca ptr, align 8
  %25 = alloca ptr, align 8
  %26 = alloca ptr, align 8
  %27 = alloca i32, align 4
  %28 = alloca i32, align 4
  %29 = alloca i32, align 4
  %30 = alloca ptr, align 8
  %31 = alloca ptr, align 8
  %32 = alloca ptr, align 8
  %33 = alloca ptr, align 8
  %34 = alloca ptr, align 8
  %35 = alloca ptr, align 8
  %36 = alloca ptr, align 8
  %37 = alloca i32, align 4
  %38 = alloca i32, align 4
  %39 = alloca i32, align 4
  %40 = alloca i32, align 4
  %41 = alloca i32, align 4
  %42 = alloca i32, align 4
  %43 = alloca i32, align 4
  %44 = alloca i32, align 4
  %45 = alloca i32, align 4
  store ptr %0, ptr %14, align 8
  store ptr %1, ptr %15, align 8
  store i32 %2, ptr %16, align 4
  store i32 %3, ptr %17, align 4
  store i32 %4, ptr %18, align 4
  store i32 %5, ptr %19, align 4
  store i32 %6, ptr %20, align 4
  store i32 %7, ptr %21, align 4
  store i32 %8, ptr %22, align 4
  store ptr %9, ptr %23, align 8
  store ptr %10, ptr %24, align 8
  store ptr %11, ptr %25, align 8
  store ptr %12, ptr %26, align 8
  %46 = load ptr, ptr %23, align 8
  %47 = getelementptr inbounds %struct.SurfaceDataRasInfo, ptr %46, i32 0, i32 6
  %48 = load ptr, ptr %47, align 8
  store ptr %48, ptr %34, align 8
  br label %49

49:                                               ; preds = %13
  %50 = load ptr, ptr %15, align 8
  store ptr %50, ptr %36, align 8
  %51 = load ptr, ptr %23, align 8
  %52 = getelementptr inbounds %struct.SurfaceDataRasInfo, ptr %51, i32 0, i32 4
  %53 = load i32, ptr %52, align 8
  store i32 %53, ptr %37, align 4
  %54 = load ptr, ptr %24, align 8
  %55 = getelementptr inbounds %struct.SurfaceDataRasInfo, ptr %54, i32 0, i32 4
  %56 = load i32, ptr %55, align 8
  store i32 %56, ptr %38, align 4
  br label %57

57:                                               ; preds = %49
  br label %58

58:                                               ; preds = %57
  %59 = load ptr, ptr %24, align 8
  %60 = getelementptr inbounds %struct.SurfaceDataRasInfo, ptr %59, i32 0, i32 0
  %61 = getelementptr inbounds %struct.SurfaceDataBounds, ptr %60, i32 0, i32 1
  %62 = load i32, ptr %61, align 4
  %63 = and i32 %62, 7
  %64 = shl i32 %63, 3
  store i32 %64, ptr %28, align 4
  br label %65

65:                                               ; preds = %58
  %66 = load ptr, ptr %24, align 8
  %67 = getelementptr inbounds %struct.SurfaceDataRasInfo, ptr %66, i32 0, i32 7
  %68 = load ptr, ptr %67, align 8
  store ptr %68, ptr %33, align 8
  %69 = load ptr, ptr %24, align 8
  %70 = getelementptr inbounds %struct.SurfaceDataRasInfo, ptr %69, i32 0, i32 12
  %71 = load i32, ptr %70, align 8
  store i32 %71, ptr %29, align 4
  br label %72

72:                                               ; preds = %65
  %73 = load i32, ptr %16, align 4
  %74 = mul i32 %73, 1
  %75 = load i32, ptr %38, align 4
  %76 = sub i32 %75, %74
  store i32 %76, ptr %38, align 4
  br label %77

77:                                               ; preds = %288, %72
  %78 = load i32, ptr %16, align 4
  store i32 %78, ptr %39, align 4
  %79 = load i32, ptr %18, align 4
  store i32 %79, ptr %40, align 4
  %80 = load ptr, ptr %14, align 8
  %81 = ptrtoint ptr %80 to i64
  %82 = load i32, ptr %19, align 4
  %83 = load i32, ptr %22, align 4
  %84 = ashr i32 %82, %83
  %85 = sext i32 %84 to i64
  %86 = load i32, ptr %37, align 4
  %87 = sext i32 %86 to i64
  %88 = mul nsw i64 %85, %87
  %89 = add nsw i64 %81, %88
  %90 = inttoptr i64 %89 to ptr
  store ptr %90, ptr %35, align 8
  br label %91

91:                                               ; preds = %77
  %92 = load ptr, ptr %24, align 8
  %93 = getelementptr inbounds %struct.SurfaceDataRasInfo, ptr %92, i32 0, i32 8
  %94 = load ptr, ptr %93, align 8
  %95 = load i32, ptr %28, align 4
  %96 = sext i32 %95 to i64
  %97 = getelementptr inbounds i8, ptr %94, i64 %96
  store ptr %97, ptr %30, align 8
  %98 = load ptr, ptr %24, align 8
  %99 = getelementptr inbounds %struct.SurfaceDataRasInfo, ptr %98, i32 0, i32 9
  %100 = load ptr, ptr %99, align 8
  %101 = load i32, ptr %28, align 4
  %102 = sext i32 %101 to i64
  %103 = getelementptr inbounds i8, ptr %100, i64 %102
  store ptr %103, ptr %31, align 8
  %104 = load ptr, ptr %24, align 8
  %105 = getelementptr inbounds %struct.SurfaceDataRasInfo, ptr %104, i32 0, i32 10
  %106 = load ptr, ptr %105, align 8
  %107 = load i32, ptr %28, align 4
  %108 = sext i32 %107 to i64
  %109 = getelementptr inbounds i8, ptr %106, i64 %108
  store ptr %109, ptr %32, align 8
  %110 = load ptr, ptr %24, align 8
  %111 = getelementptr inbounds %struct.SurfaceDataRasInfo, ptr %110, i32 0, i32 0
  %112 = getelementptr inbounds %struct.SurfaceDataBounds, ptr %111, i32 0, i32 0
  %113 = load i32, ptr %112, align 8
  %114 = and i32 %113, 7
  store i32 %114, ptr %27, align 4
  br label %115

115:                                              ; preds = %91
  br label %116

116:                                              ; preds = %271, %115
  %117 = load i32, ptr %40, align 4
  %118 = load i32, ptr %22, align 4
  %119 = ashr i32 %117, %118
  store i32 %119, ptr %41, align 4
  br label %120

120:                                              ; preds = %116
  %121 = load ptr, ptr %34, align 8
  %122 = load ptr, ptr %35, align 8
  %123 = load i32, ptr %41, align 4
  %124 = sext i32 %123 to i64
  %125 = getelementptr inbounds i8, ptr %122, i64 %124
  %126 = load i8, ptr %125, align 1
  %127 = zext i8 %126 to i64
  %128 = getelementptr inbounds i32, ptr %121, i64 %127
  %129 = load i32, ptr %128, align 4
  store i32 %129, ptr %42, align 4
  %130 = load i32, ptr %42, align 4
  %131 = icmp slt i32 %130, 0
  br i1 %131, label %132, label %259

132:                                              ; preds = %120
  br label %133

133:                                              ; preds = %132
  br label %134

134:                                              ; preds = %133
  %135 = load i32, ptr %42, align 4
  %136 = and i32 %135, 255
  store i32 %136, ptr %45, align 4
  %137 = load i32, ptr %42, align 4
  %138 = ashr i32 %137, 8
  %139 = and i32 %138, 255
  store i32 %139, ptr %44, align 4
  %140 = load i32, ptr %42, align 4
  %141 = ashr i32 %140, 16
  %142 = and i32 %141, 255
  store i32 %142, ptr %43, align 4
  br label %143

143:                                              ; preds = %134
  br label %144

144:                                              ; preds = %143
  %145 = load i32, ptr %43, align 4
  %146 = icmp eq i32 %145, 0
  br i1 %146, label %150, label %147

147:                                              ; preds = %144
  %148 = load i32, ptr %43, align 4
  %149 = icmp eq i32 %148, 255
  br i1 %149, label %150, label %165

150:                                              ; preds = %147, %144
  %151 = load i32, ptr %44, align 4
  %152 = icmp eq i32 %151, 0
  br i1 %152, label %156, label %153

153:                                              ; preds = %150
  %154 = load i32, ptr %44, align 4
  %155 = icmp eq i32 %154, 255
  br i1 %155, label %156, label %165

156:                                              ; preds = %153, %150
  %157 = load i32, ptr %45, align 4
  %158 = icmp eq i32 %157, 0
  br i1 %158, label %162, label %159

159:                                              ; preds = %156
  %160 = load i32, ptr %45, align 4
  %161 = icmp eq i32 %160, 255
  br i1 %161, label %162, label %165

162:                                              ; preds = %159, %156
  %163 = load i32, ptr %29, align 4
  %164 = icmp ne i32 %163, 0
  br i1 %164, label %190, label %165

165:                                              ; preds = %162, %159, %153, %147
  %166 = load ptr, ptr %30, align 8
  %167 = load i32, ptr %27, align 4
  %168 = sext i32 %167 to i64
  %169 = getelementptr inbounds i8, ptr %166, i64 %168
  %170 = load i8, ptr %169, align 1
  %171 = sext i8 %170 to i32
  %172 = load i32, ptr %43, align 4
  %173 = add nsw i32 %172, %171
  store i32 %173, ptr %43, align 4
  %174 = load ptr, ptr %31, align 8
  %175 = load i32, ptr %27, align 4
  %176 = sext i32 %175 to i64
  %177 = getelementptr inbounds i8, ptr %174, i64 %176
  %178 = load i8, ptr %177, align 1
  %179 = sext i8 %178 to i32
  %180 = load i32, ptr %44, align 4
  %181 = add nsw i32 %180, %179
  store i32 %181, ptr %44, align 4
  %182 = load ptr, ptr %32, align 8
  %183 = load i32, ptr %27, align 4
  %184 = sext i32 %183 to i64
  %185 = getelementptr inbounds i8, ptr %182, i64 %184
  %186 = load i8, ptr %185, align 1
  %187 = sext i8 %186 to i32
  %188 = load i32, ptr %45, align 4
  %189 = add nsw i32 %188, %187
  store i32 %189, ptr %45, align 4
  br label %190

190:                                              ; preds = %165, %162
  br label %191

191:                                              ; preds = %190
  %192 = load i32, ptr %43, align 4
  %193 = load i32, ptr %44, align 4
  %194 = or i32 %192, %193
  %195 = load i32, ptr %45, align 4
  %196 = or i32 %194, %195
  %197 = ashr i32 %196, 8
  %198 = icmp ne i32 %197, 0
  br i1 %198, label %199, label %233

199:                                              ; preds = %191
  br label %200

200:                                              ; preds = %199
  %201 = load i32, ptr %43, align 4
  %202 = ashr i32 %201, 8
  %203 = icmp ne i32 %202, 0
  br i1 %203, label %204, label %209

204:                                              ; preds = %200
  %205 = load i32, ptr %43, align 4
  %206 = ashr i32 %205, 31
  %207 = xor i32 %206, -1
  %208 = and i32 %207, 255
  store i32 %208, ptr %43, align 4
  br label %209

209:                                              ; preds = %204, %200
  br label %210

210:                                              ; preds = %209
  br label %211

211:                                              ; preds = %210
  %212 = load i32, ptr %44, align 4
  %213 = ashr i32 %212, 8
  %214 = icmp ne i32 %213, 0
  br i1 %214, label %215, label %220

215:                                              ; preds = %211
  %216 = load i32, ptr %44, align 4
  %217 = ashr i32 %216, 31
  %218 = xor i32 %217, -1
  %219 = and i32 %218, 255
  store i32 %219, ptr %44, align 4
  br label %220

220:                                              ; preds = %215, %211
  br label %221

221:                                              ; preds = %220
  br label %222

222:                                              ; preds = %221
  %223 = load i32, ptr %45, align 4
  %224 = ashr i32 %223, 8
  %225 = icmp ne i32 %224, 0
  br i1 %225, label %226, label %231

226:                                              ; preds = %222
  %227 = load i32, ptr %45, align 4
  %228 = ashr i32 %227, 31
  %229 = xor i32 %228, -1
  %230 = and i32 %229, 255
  store i32 %230, ptr %45, align 4
  br label %231

231:                                              ; preds = %226, %222
  br label %232

232:                                              ; preds = %231
  br label %233

233:                                              ; preds = %232, %191
  br label %234

234:                                              ; preds = %233
  %235 = load ptr, ptr %33, align 8
  %236 = load i32, ptr %43, align 4
  %237 = trunc i32 %236 to i8
  %238 = zext i8 %237 to i32
  %239 = ashr i32 %238, 3
  %240 = shl i32 %239, 10
  %241 = load i32, ptr %44, align 4
  %242 = trunc i32 %241 to i8
  %243 = zext i8 %242 to i32
  %244 = ashr i32 %243, 3
  %245 = shl i32 %244, 5
  %246 = add nsw i32 %240, %245
  %247 = load i32, ptr %45, align 4
  %248 = trunc i32 %247 to i8
  %249 = zext i8 %248 to i32
  %250 = ashr i32 %249, 3
  %251 = add nsw i32 %246, %250
  %252 = sext i32 %251 to i64
  %253 = getelementptr inbounds i8, ptr %235, i64 %252
  %254 = load i8, ptr %253, align 1
  %255 = load ptr, ptr %36, align 8
  %256 = getelementptr inbounds i8, ptr %255, i64 0
  store i8 %254, ptr %256, align 1
  br label %257

257:                                              ; preds = %234
  br label %258

258:                                              ; preds = %257
  br label %259

259:                                              ; preds = %258, %120
  br label %260

260:                                              ; preds = %259
  %261 = load ptr, ptr %36, align 8
  %262 = ptrtoint ptr %261 to i64
  %263 = add nsw i64 %262, 1
  %264 = inttoptr i64 %263 to ptr
  store ptr %264, ptr %36, align 8
  %265 = load i32, ptr %27, align 4
  %266 = add nsw i32 %265, 1
  %267 = and i32 %266, 7
  store i32 %267, ptr %27, align 4
  %268 = load i32, ptr %20, align 4
  %269 = load i32, ptr %40, align 4
  %270 = add nsw i32 %269, %268
  store i32 %270, ptr %40, align 4
  br label %271

271:                                              ; preds = %260
  %272 = load i32, ptr %39, align 4
  %273 = add i32 %272, -1
  store i32 %273, ptr %39, align 4
  %274 = icmp ugt i32 %273, 0
  br i1 %274, label %116, label %275, !llvm.loop !32

275:                                              ; preds = %271
  %276 = load ptr, ptr %36, align 8
  %277 = ptrtoint ptr %276 to i64
  %278 = load i32, ptr %38, align 4
  %279 = sext i32 %278 to i64
  %280 = add nsw i64 %277, %279
  %281 = inttoptr i64 %280 to ptr
  store ptr %281, ptr %36, align 8
  %282 = load i32, ptr %28, align 4
  %283 = add nsw i32 %282, 8
  %284 = and i32 %283, 56
  store i32 %284, ptr %28, align 4
  %285 = load i32, ptr %21, align 4
  %286 = load i32, ptr %19, align 4
  %287 = add nsw i32 %286, %285
  store i32 %287, ptr %19, align 4
  br label %288

288:                                              ; preds = %275
  %289 = load i32, ptr %17, align 4
  %290 = add i32 %289, -1
  store i32 %290, ptr %17, align 4
  %291 = icmp ugt i32 %290, 0
  br i1 %291, label %77, label %292, !llvm.loop !33

292:                                              ; preds = %288
  br label %293

293:                                              ; preds = %292
  ret void
}