; Function Attrs: nofree norecurse nosync nounwind memory(readwrite, inaccessiblemem: none) uwtable
define hidden void @ByteIndexedBmToByteIndexedScaleXparOver(ptr noundef %0, ptr noundef %1, i32 noundef %2, i32 noundef %3, i32 noundef %4, i32 noundef %5, i32 noundef %6, i32 noundef %7, i32 noundef %8, ptr nocapture noundef readonly %9, ptr nocapture noundef readonly %10, ptr nocapture readnone %11, ptr nocapture readnone %12) #0 {
  %14 = getelementptr inbounds i8, ptr %9, i64 40
  %15 = load ptr, ptr %14, align 8
  %16 = getelementptr inbounds i8, ptr %9, i64 32
  %17 = load i32, ptr %16, align 8
  %18 = getelementptr inbounds i8, ptr %10, i64 32
  %19 = load i32, ptr %18, align 8
  %20 = getelementptr inbounds i8, ptr %10, i64 4
  %21 = load i32, ptr %20, align 4
  %22 = shl i32 %21, 3
  %23 = getelementptr inbounds i8, ptr %10, i64 48
  %24 = load ptr, ptr %23, align 8
  %25 = getelementptr inbounds i8, ptr %10, i64 88
  %26 = load i32, ptr %25, align 8
  %27 = sub i32 %19, %2
  %28 = sext i32 %27 to i64
  %29 = ptrtoint ptr %0 to i64
  %30 = sext i32 %17 to i64
  %31 = getelementptr inbounds i8, ptr %10, i64 56
  %32 = getelementptr inbounds i8, ptr %10, i64 64
  %33 = getelementptr inbounds i8, ptr %10, i64 72
  %34 = icmp ne i32 %26, 0
  br label %35

35:                                               ; preds = %110, %13
  %.090.in = phi i32 [ %22, %13 ], [ %113, %110 ]
  %.088 = phi ptr [ %1, %13 ], [ %112, %110 ]
  %.084 = phi i32 [ %5, %13 ], [ %114, %110 ]
  %.083 = phi i32 [ %3, %13 ], [ %115, %110 ]
  %.090 = and i32 %.090.in, 56
  %36 = ashr i32 %.084, %8
  %37 = sext i32 %36 to i64
  %38 = mul nsw i64 %37, %30
  %39 = add nsw i64 %38, %29
  %40 = inttoptr i64 %39 to ptr
  %41 = load ptr, ptr %31, align 8
  %42 = zext nneg i32 %.090 to i64
  %43 = getelementptr inbounds i8, ptr %41, i64 %42
  %44 = load ptr, ptr %32, align 8
  %45 = getelementptr inbounds i8, ptr %44, i64 %42
  %46 = load ptr, ptr %33, align 8
  %47 = getelementptr inbounds i8, ptr %46, i64 %42
  %48 = load i32, ptr %10, align 8
  br label %49

49:                                               ; preds = %103, %35
  %.189 = phi ptr [ %.088, %35 ], [ %106, %103 ]
  %.087.in = phi i32 [ %48, %35 ], [ %107, %103 ]
  %.086 = phi i32 [ %2, %35 ], [ %109, %103 ]
  %.085 = phi i32 [ %4, %35 ], [ %108, %103 ]
  %.087 = and i32 %.087.in, 7
  %50 = ashr i32 %.085, %8
  %51 = sext i32 %50 to i64
  %52 = getelementptr inbounds i8, ptr %40, i64 %51
  %53 = load i8, ptr %52, align 1
  %54 = zext i8 %53 to i64
  %55 = getelementptr inbounds i32, ptr %15, i64 %54
  %56 = load i32, ptr %55, align 4
  %57 = icmp slt i32 %56, 0
  br i1 %57, label %58, label %103

58:                                               ; preds = %49
  %59 = and i32 %56, 255
  %60 = lshr i32 %56, 8
  %61 = and i32 %60, 255
  %62 = lshr i32 %56, 16
  %63 = and i32 %62, 255
  %trunc = trunc i32 %62 to i8
  switch i8 %trunc, label %68 [
    i8 -1, label %64
    i8 0, label %64
  ]

64:                                               ; preds = %58, %58
  %trunc101 = trunc i32 %60 to i8
  switch i8 %trunc101, label %68 [
    i8 -1, label %65
    i8 0, label %65
  ]

65:                                               ; preds = %64, %64
  %66 = icmp eq i32 %59, 0
  %67 = icmp eq i32 %59, 255
  %or.cond5 = or i1 %66, %67
  %or.cond7 = select i1 %or.cond5, i1 %34, i1 false
  br i1 %or.cond7, label %82, label %68

68:                                               ; preds = %64, %58, %65
  %69 = zext nneg i32 %.087 to i64
  %70 = getelementptr inbounds i8, ptr %43, i64 %69
  %71 = load i8, ptr %70, align 1
  %72 = sext i8 %71 to i32
  %73 = add nsw i32 %63, %72
  %74 = getelementptr inbounds i8, ptr %45, i64 %69
  %75 = load i8, ptr %74, align 1
  %76 = sext i8 %75 to i32
  %77 = add nsw i32 %61, %76
  %78 = getelementptr inbounds i8, ptr %47, i64 %69
  %79 = load i8, ptr %78, align 1
  %80 = sext i8 %79 to i32
  %81 = add nsw i32 %59, %80
  br label %82

82:                                               ; preds = %68, %65
  %.080 = phi i32 [ %63, %65 ], [ %73, %68 ]
  %.078 = phi i32 [ %61, %65 ], [ %77, %68 ]
  %.0 = phi i32 [ %59, %65 ], [ %81, %68 ]
  %83 = or i32 %.078, %.080
  %84 = or i32 %83, %.0
  %.not = icmp ult i32 %84, 256
  br i1 %.not, label %92, label %85

85:                                               ; preds = %82
  %86 = tail call i32 @llvm.smax.i32(i32 %.080, i32 0)
  %87 = tail call i32 @llvm.umin.i32(i32 %86, i32 255)
  %88 = tail call i32 @llvm.smax.i32(i32 %.078, i32 0)
  %89 = tail call i32 @llvm.umin.i32(i32 %88, i32 255)
  %.not97 = icmp ult i32 %.0, 256
  br i1 %.not97, label %92, label %90

90:                                               ; preds = %85
  %isnotneg.inv98 = icmp slt i32 %.0, 0
  %91 = select i1 %isnotneg.inv98, i32 0, i32 255
  br label %92

92:                                               ; preds = %82, %85, %90
  %.282 = phi i32 [ %87, %90 ], [ %87, %85 ], [ %.080, %82 ]
  %.2 = phi i32 [ %89, %90 ], [ %89, %85 ], [ %.078, %82 ]
  %.1 = phi i32 [ %91, %90 ], [ %.0, %85 ], [ %.0, %82 ]
  %93 = shl nsw i32 %.282, 7
  %94 = and i32 %93, 31744
  %95 = shl nsw i32 %.2, 2
  %96 = and i32 %95, 992
  %97 = or disjoint i32 %96, %94
  %98 = lshr i32 %.1, 3
  %99 = or disjoint i32 %97, %98
  %100 = zext nneg i32 %99 to i64
  %101 = getelementptr inbounds i8, ptr %24, i64 %100
  %102 = load i8, ptr %101, align 1
  store i8 %102, ptr %.189, align 1
  br label %103

103:                                              ; preds = %49, %92
  %104 = ptrtoint ptr %.189 to i64
  %105 = add nsw i64 %104, 1
  %106 = inttoptr i64 %105 to ptr
  %107 = add nuw nsw i32 %.087, 1
  %108 = add nsw i32 %.085, %6
  %109 = add i32 %.086, -1
  %.not99 = icmp eq i32 %109, 0
  br i1 %.not99, label %110, label %49, !llvm.loop !33

110:                                              ; preds = %103
  %111 = add nsw i64 %105, %28
  %112 = inttoptr i64 %111 to ptr
  %113 = add nuw nsw i32 %.090, 8
  %114 = add nsw i32 %.084, %7
  %115 = add i32 %.083, -1
  %.not100 = icmp eq i32 %115, 0
  br i1 %.not100, label %116, label %35, !llvm.loop !34

116:                                              ; preds = %110
  ret void
}